; Function Attrs: mustprogress uwtable
define void @_ZN32pxrInternal_v0_24__pxrReserved__13SdfFileFormatC2ERKNS_7TfTokenES3_S3_RKSt6vectorINSt7__cxx1112basic_stringIcSt11char_traitsIcESaIcEEESaISA_EE(ptr noundef nonnull align 8 dereferenceable(113) %0, ptr nocapture noundef nonnull readonly align 8 dereferenceable(8) %1, ptr nocapture noundef nonnull readonly align 8 dereferenceable(8) %2, ptr nocapture noundef nonnull readonly align 8 dereferenceable(8) %3, ptr noundef nonnull align 8 dereferenceable(24) %4) unnamed_addr #0 align 2 personality ptr @__gxx_personality_v0 {
  %6 = load atomic i64, ptr @_ZN32pxrInternal_v0_24__pxrReserved__11TfSingletonINS_9SdfSchemaEE9_instanceE seq_cst, align 8
  %.0.i.i.i = inttoptr i64 %6 to ptr
  %.not.i.i = icmp eq i64 %6, 0
  br i1 %.not.i.i, label %7, label %_ZN32pxrInternal_v0_24__pxrReserved__9SdfSchema11GetInstanceEv.exit

7:                                                ; preds = %5
  %8 = tail call noundef ptr @_ZN32pxrInternal_v0_24__pxrReserved__11TfSingletonINS_9SdfSchemaEE15_CreateInstanceERSt6atomicIPS1_E(ptr noundef nonnull align 8 dereferenceable(8) @_ZN32pxrInternal_v0_24__pxrReserved__11TfSingletonINS_9SdfSchemaEE9_instanceE)
  br label %_ZN32pxrInternal_v0_24__pxrReserved__9SdfSchema11GetInstanceEv.exit

_ZN32pxrInternal_v0_24__pxrReserved__9SdfSchema11GetInstanceEv.exit: ; preds = %5, %7
  %.0.i.i = phi ptr [ %.0.i.i.i, %5 ], [ %8, %7 ]
  tail call void @_ZN32pxrInternal_v0_24__pxrReserved__13SdfFileFormatC2ERKNS_7TfTokenES3_S3_RKSt6vectorINSt7__cxx1112basic_stringIcSt11char_traitsIcESaIcEEESaISA_EERKNS_13SdfSchemaBaseE(ptr noundef nonnull align 8 dereferenceable(113) %0, ptr noundef nonnull align 8 dereferenceable(8) %1, ptr noundef nonnull align 8 dereferenceable(8) %2, ptr noundef nonnull align 8 dereferenceable(8) %3, ptr noundef nonnull align 8 dereferenceable(24) %4, ptr noundef nonnull align 8 dereferenceable(1160) %.0.i.i)
  ret void
}